target datalayout = "e-m:e-p270:32:32-p271:32:32-p272:64:64-i64:64-i128:128-f80:128-n8:16:32:64-S128"
target triple = "x86_64-pc-linux-gnu"

%class.Metadata = type { ptr }
%class.ConstantPool = type <{ %class.Metadata, ptr, ptr, ptr, ptr, ptr, i16, i16, i16, i16, i16, [2 x i8], i32, %union.anon.2, [4 x i8] }>
%union.anon.2 = type { i32 }
%class.constantPoolHandle = type { ptr, ptr }

; Function Attrs: mustprogress nounwind uwtable
define linkonce_odr hidden noundef ptr @_ZNK18constantPoolHandle12non_null_objEv(ptr noundef nonnull align 8 dereferenceable(16) %0) #1 comdat align 2 {
  %2 = alloca ptr, align 8
  store ptr %0, ptr %2, align 8
  %3 = load ptr, ptr %2, align 8
  %4 = getelementptr inbounds %class.constantPoolHandle, ptr %3, i32 0, i32 0
  %5 = load ptr, ptr %4, align 8
  ret ptr %5
}

; Function Attrs: mustprogress nounwind uwtable
define linkonce_odr hidden noundef i32 @_ZNK12ConstantPool6lengthEv(ptr noundef nonnull align 8 dereferenceable(68) %0) #1 comdat align 2 {
  %2 = alloca ptr, align 8
  store ptr %0, ptr %2, align 8
  %3 = load ptr, ptr %2, align 8
  %4 = getelementptr inbounds %class.ConstantPool, ptr %3, i32 0, i32 12
  %5 = load i32, ptr %4, align 4
  ret i32 %5
}

; Function Attrs: mustprogress nounwind uwtable
define linkonce_odr hidden noundef ptr @_ZNK18constantPoolHandleptEv(ptr noundef nonnull align 8 dereferenceable(16) %0) #1 comdat align 2 {
  %2 = alloca ptr, align 8
  store ptr %0, ptr %2, align 8
  %3 = load ptr, ptr %2, align 8
  %4 = call noundef ptr @_ZNK18constantPoolHandle12non_null_objEv(ptr noundef nonnull align 8 dereferenceable(16) %3)
  ret ptr %4
}

; Function Attrs: mustprogress nounwind uwtable
define hidden noundef i32 @_ZN12ConstantPool19find_matching_entryEiRK18constantPoolHandle(ptr noundef nonnull align 8 dereferenceable(68) %0, i32 noundef %1, ptr noundef nonnull align 8 dereferenceable(16) %2) #1 align 2 {
  %4 = alloca i32, align 4
  %5 = alloca ptr, align 8
  %6 = alloca i32, align 4
  %7 = alloca ptr, align 8
  %8 = alloca i32, align 4
  %9 = alloca i8, align 1
  store ptr %0, ptr %5, align 8
  store i32 %1, ptr %6, align 4
  store ptr %2, ptr %7, align 8
  %10 = load ptr, ptr %5, align 8
  store i32 1, ptr %8, align 4
  br label %11

11:                                               ; preds = %28, %3
  %12 = load i32, ptr %8, align 4
  %13 = load ptr, ptr %7, align 8
  %14 = call noundef ptr @_ZNK18constantPoolHandleptEv(ptr noundef nonnull align 8 dereferenceable(16) %13)
  %15 = call noundef i32 @_ZNK12ConstantPool6lengthEv(ptr noundef nonnull align 8 dereferenceable(68) %14)
  %16 = icmp slt i32 %12, %15
  br i1 %16, label %17, label %31

17:                                               ; preds = %11
  %18 = load i32, ptr %6, align 4
  %19 = load ptr, ptr %7, align 8
  %20 = load i32, ptr %8, align 4
  %21 = call noundef zeroext i1 @_ZN12ConstantPool16compare_entry_toEiRK18constantPoolHandlei(ptr noundef nonnull align 8 dereferenceable(68) %10, i32 noundef %18, ptr noundef nonnull align 8 dereferenceable(16) %19, i32 noundef %20)
  %22 = zext i1 %21 to i8
  store i8 %22, ptr %9, align 1
  %23 = load i8, ptr %9, align 1
  %24 = trunc i8 %23 to i1
  br i1 %24, label %25, label %27

25:                                               ; preds = %17
  %26 = load i32, ptr %8, align 4
  store i32 %26, ptr %4, align 4
  br label %32

27:                                               ; preds = %17
  br label %28

28:                                               ; preds = %27
  %29 = load i32, ptr %8, align 4
  %30 = add nsw i32 %29, 1
  store i32 %30, ptr %8, align 4
  br label %11, !llvm.loop !22

31:                                               ; preds = %11
  store i32 0, ptr %4, align 4
  br label %32

32:                                               ; preds = %31, %25
  %33 = load i32, ptr %4, align 4
  ret i32 %33
}