; Function Attrs: mustprogress nounwind uwtable
define hidden noundef i32 @_ZN12ConstantPool19find_matching_entryEiRK18constantPoolHandle(ptr nocapture noundef nonnull readonly align 8 dereferenceable(68) %0, i32 noundef %1, ptr nocapture noundef nonnull readonly align 8 dereferenceable(16) %2) local_unnamed_addr #0 align 2 {
  %4 = load ptr, ptr %2, align 8
  %5 = getelementptr inbounds i8, ptr %4, i64 60
  %6 = load i32, ptr %5, align 4
  %7 = icmp sgt i32 %6, 1
  br i1 %7, label %.lr.ph, label %._crit_edge

.lr.ph:                                           ; preds = %3, %9
  %.0910 = phi i32 [ %10, %9 ], [ 1, %3 ]
  %8 = tail call noundef zeroext i1 @_ZN12ConstantPool16compare_entry_toEiRK18constantPoolHandlei(ptr noundef nonnull align 8 dereferenceable(68) %0, i32 noundef %1, ptr noundef nonnull align 8 dereferenceable(16) %2, i32 noundef %.0910)
  br i1 %8, label %._crit_edge, label %9

9:                                                ; preds = %.lr.ph
  %10 = add nuw nsw i32 %.0910, 1
  %11 = load ptr, ptr %2, align 8
  %12 = getelementptr inbounds i8, ptr %11, i64 60
  %13 = load i32, ptr %12, align 4
  %14 = icmp slt i32 %10, %13
  br i1 %14, label %.lr.ph, label %._crit_edge, !llvm.loop !32

._crit_edge:                                      ; preds = %.lr.ph, %9, %3
  %.0 = phi i32 [ 0, %3 ], [ 0, %9 ], [ %.0910, %.lr.ph ]
  ret i32 %.0
}